; ModuleID = '781.c'
source_filename = "781.c"
target datalayout = "e-m:e-p270:32:32-p271:32:32-p272:64:64-i64:64-f80:128-n8:16:32:64-S128"
target triple = "x86_64-pc-linux-gnu"

%struct.student = type { i32, i32, i32, i32 }

@.str = private unnamed_addr constant [3 x i8] c"%d\00", align 1
@.str.1 = private unnamed_addr constant [7 x i8] c"%d%d%d\00", align 1
@.str.2 = private unnamed_addr constant [19 x i8] c"%d %d\0A%d %d\0A%d %d\0A\00", align 1

; Function Attrs: noinline nounwind uwtable
define dso_local i32 @main() #0 {
  %1 = alloca i32, align 4
  %2 = alloca i32, align 4
  %3 = alloca %struct.student*, align 8
  %4 = alloca i32, align 4
  %5 = alloca i32, align 4
  %6 = alloca i32, align 4
  %7 = alloca i32, align 4
  %8 = alloca i32, align 4
  %9 = alloca i32, align 4
  %10 = alloca i32, align 4
  store i32 0, i32* %1, align 4
  %11 = call i32 (i8*, ...) @__isoc99_scanf(i8* getelementptr inbounds ([3 x i8], [3 x i8]* @.str, i64 0, i64 0), i32* %2)
  %12 = load i32, i32* %2, align 4
  %13 = sext i32 %12 to i64
  %14 = mul i64 16, %13
  %15 = call noalias i8* @malloc(i64 %14) #3
  %16 = bitcast i8* %15 to %struct.student*
  store %struct.student* %16, %struct.student** %3, align 8
  store i32 0, i32* %5, align 4
  store i32 0, i32* %6, align 4
  store i32 0, i32* %7, align 4
  store i32 0, i32* %8, align 4
  store i32 0, i32* %9, align 4
  store i32 0, i32* %10, align 4
  store i32 0, i32* %4, align 4
  br label %17

17:                                               ; preds = %130, %0
  %18 = load i32, i32* %4, align 4
  %19 = load i32, i32* %2, align 4
  %20 = icmp slt i32 %18, %19
  br i1 %20, label %21, label %133

21:                                               ; preds = %17
  %22 = load %struct.student*, %struct.student** %3, align 8
  %23 = load i32, i32* %4, align 4
  %24 = sext i32 %23 to i64
  %25 = getelementptr inbounds %struct.student, %struct.student* %22, i64 %24
  %26 = getelementptr inbounds %struct.student, %struct.student* %25, i32 0, i32 0
  %27 = load %struct.student*, %struct.student** %3, align 8
  %28 = load i32, i32* %4, align 4
  %29 = sext i32 %28 to i64
  %30 = getelementptr inbounds %struct.student, %struct.student* %27, i64 %29
  %31 = getelementptr inbounds %struct.student, %struct.student* %30, i32 0, i32 1
  %32 = load %struct.student*, %struct.student** %3, align 8
  %33 = load i32, i32* %4, align 4
  %34 = sext i32 %33 to i64
  %35 = getelementptr inbounds %struct.student, %struct.student* %32, i64 %34
  %36 = getelementptr inbounds %struct.student, %struct.student* %35, i32 0, i32 2
  %37 = call i32 (i8*, ...) @__isoc99_scanf(i8* getelementptr inbounds ([7 x i8], [7 x i8]* @.str.1, i64 0, i64 0), i32* %26, i32* %31, i32* %36)
  %38 = load %struct.student*, %struct.student** %3, align 8
  %39 = load i32, i32* %4, align 4
  %40 = sext i32 %39 to i64
  %41 = getelementptr inbounds %struct.student, %struct.student* %38, i64 %40
  %42 = getelementptr inbounds %struct.student, %struct.student* %41, i32 0, i32 1
  %43 = load i32, i32* %42, align 4
  %44 = load %struct.student*, %struct.student** %3, align 8
  %45 = load i32, i32* %4, align 4
  %46 = sext i32 %45 to i64
  %47 = getelementptr inbounds %struct.student, %struct.student* %44, i64 %46
  %48 = getelementptr inbounds %struct.student, %struct.student* %47, i32 0, i32 2
  %49 = load i32, i32* %48, align 4
  %50 = add nsw i32 %43, %49
  %51 = load %struct.student*, %struct.student** %3, align 8
  %52 = load i32, i32* %4, align 4
  %53 = sext i32 %52 to i64
  %54 = getelementptr inbounds %struct.student, %struct.student* %51, i64 %53
  %55 = getelementptr inbounds %struct.student, %struct.student* %54, i32 0, i32 3
  store i32 %50, i32* %55, align 4
  %56 = load %struct.student*, %struct.student** %3, align 8
  %57 = load i32, i32* %4, align 4
  %58 = sext i32 %57 to i64
  %59 = getelementptr inbounds %struct.student, %struct.student* %56, i64 %58
  %60 = getelementptr inbounds %struct.student, %struct.student* %59, i32 0, i32 3
  %61 = load i32, i32* %60, align 4
  %62 = load i32, i32* %5, align 4
  %63 = icmp sgt i32 %61, %62
  br i1 %63, label %64, label %81

64:                                               ; preds = %21
  %65 = load i32, i32* %6, align 4
  store i32 %65, i32* %7, align 4
  %66 = load i32, i32* %9, align 4
  store i32 %66, i32* %10, align 4
  %67 = load i32, i32* %5, align 4
  store i32 %67, i32* %6, align 4
  %68 = load i32, i32* %8, align 4
  store i32 %68, i32* %9, align 4
  %69 = load %struct.student*, %struct.student** %3, align 8
  %70 = load i32, i32* %4, align 4
  %71 = sext i32 %70 to i64
  %72 = getelementptr inbounds %struct.student, %struct.student* %69, i64 %71
  %73 = getelementptr inbounds %struct.student, %struct.student* %72, i32 0, i32 3
  %74 = load i32, i32* %73, align 4
  store i32 %74, i32* %5, align 4
  %75 = load %struct.student*, %struct.student** %3, align 8
  %76 = load i32, i32* %4, align 4
  %77 = sext i32 %76 to i64
  %78 = getelementptr inbounds %struct.student, %struct.student* %75, i64 %77
  %79 = getelementptr inbounds %struct.student, %struct.student* %78, i32 0, i32 0
  %80 = load i32, i32* %79, align 4
  store i32 %80, i32* %8, align 4
  br label %129

81:                                               ; preds = %21
  %82 = load %struct.student*, %struct.student** %3, align 8
  %83 = load i32, i32* %4, align 4
  %84 = sext i32 %83 to i64
  %85 = getelementptr inbounds %struct.student, %struct.student* %82, i64 %84
  %86 = getelementptr inbounds %struct.student, %struct.student* %85, i32 0, i32 3
  %87 = load i32, i32* %86, align 4
  %88 = load i32, i32* %6, align 4
  %89 = icmp sgt i32 %87, %88
  br i1 %89, label %90, label %105

90:                                               ; preds = %81
  %91 = load i32, i32* %6, align 4
  store i32 %91, i32* %7, align 4
  %92 = load i32, i32* %9, align 4
  store i32 %92, i32* %10, align 4
  %93 = load %struct.student*, %struct.student** %3, align 8
  %94 = load i32, i32* %4, align 4
  %95 = sext i32 %94 to i64
  %96 = getelementptr inbounds %struct.student, %struct.student* %93, i64 %95
  %97 = getelementptr inbounds %struct.student, %struct.student* %96, i32 0, i32 3
  %98 = load i32, i32* %97, align 4
  store i32 %98, i32* %6, align 4
  %99 = load %struct.student*, %struct.student** %3, align 8
  %100 = load i32, i32* %4, align 4
  %101 = sext i32 %100 to i64
  %102 = getelementptr inbounds %struct.student, %struct.student* %99, i64 %101
  %103 = getelementptr inbounds %struct.student, %struct.student* %102, i32 0, i32 0
  %104 = load i32, i32* %103, align 4
  store i32 %104, i32* %9, align 4
  br label %128

105:                                              ; preds = %81
  %106 = load %struct.student*, %struct.student** %3, align 8
  %107 = load i32, i32* %4, align 4
  %108 = sext i32 %107 to i64
  %109 = getelementptr inbounds %struct.student, %struct.student* %106, i64 %108
  %110 = getelementptr inbounds %struct.student, %struct.student* %109, i32 0, i32 3
  %111 = load i32, i32* %110, align 4
  %112 = load i32, i32* %7, align 4
  %113 = icmp sgt i32 %111, %112
  br i1 %113, label %114, label %127

114:                                              ; preds = %105
  %115 = load %struct.student*, %struct.student** %3, align 8
  %116 = load i32, i32* %4, align 4
  %117 = sext i32 %116 to i64
  %118 = getelementptr inbounds %struct.student, %struct.student* %115, i64 %117
  %119 = getelementptr inbounds %struct.student, %struct.student* %118, i32 0, i32 3
  %120 = load i32, i32* %119, align 4
  store i32 %120, i32* %7, align 4
  %121 = load %struct.student*, %struct.student** %3, align 8
  %122 = load i32, i32* %4, align 4
  %123 = sext i32 %122 to i64
  %124 = getelementptr inbounds %struct.student, %struct.student* %121, i64 %123
  %125 = getelementptr inbounds %struct.student, %struct.student* %124, i32 0, i32 0
  %126 = load i32, i32* %125, align 4
  store i32 %126, i32* %10, align 4
  br label %127

127:                                              ; preds = %114, %105
  br label %128

128:                                              ; preds = %127, %90
  br label %129

129:                                              ; preds = %128, %64
  br label %130

130:                                              ; preds = %129
  %131 = load i32, i32* %4, align 4
  %132 = add nsw i32 %131, 1
  store i32 %132, i32* %4, align 4
  br label %17

133:                                              ; preds = %17
  %134 = load i32, i32* %8, align 4
  %135 = load i32, i32* %5, align 4
  %136 = load i32, i32* %9, align 4
  %137 = load i32, i32* %6, align 4
  %138 = load i32, i32* %10, align 4
  %139 = load i32, i32* %7, align 4
  %140 = call i32 (i8*, ...) @printf(i8* getelementptr inbounds ([19 x i8], [19 x i8]* @.str.2, i64 0, i64 0), i32 %134, i32 %135, i32 %136, i32 %137, i32 %138, i32 %139)
  ret i32 0
}

declare dso_local i32 @__isoc99_scanf(i8*, ...) #1

; Function Attrs: nounwind
declare dso_local noalias i8* @malloc(i64) #2

declare dso_local i32 @printf(i8*, ...) #1


!llvm.module.flags = !{!0}
!llvm.ident = !{!1}

!0 = !{i32 1, !"wchar_size", i32 4}
!1 = !{!"clang version 10.0.0-4ubuntu1 "}
